00007220: E92D41F0  STMPW   [R13], { R4-R8, R14 }
00007224: E3074010  MRS     R4,CPSR
00007228: E2845020  ADD     R5, R4, #$20
0000722C: E5946014  LDR     R6, [R4, #$14]
00007230: E3027710  MRS     R7,CPSR
00007234: E5940010  LDR     R0, [R4, #$10]
00007238: E3500000  CMPS    R0, #$0
0000723C: 0A000001  BEQ     $7248
00007240: E3A00001  MOV     R0, #$1
00007244: EB000057  BL      $73a8
00007248: E1A00005  MOV     R0, R5 
0000724C: EB000051  BL      $7398
00007250: E3560000  CMPS    R6, #$0
00007254: 0A000001  BEQ     $7260
00007258: E1A01006  MOV     R1, R6 
0000725C: EA000000  B       $7264
00007260: E30012D0  MRS     R1,CPSR
00007264: E1A00001  MOV     R0, R1 
00007268: EB000012  BL      $72b8
0000726C: E3A01001  MOV     R1, #$1
00007270: E5950004  LDR     R0, [R5, #$4]
00007274: EB00004A  BL      $73a4
00007278: E320F000  MSRF    CPSR,R15, #$0
0000727C: E1B00007  MOVS    R0, R7 
00007280: E2477001  SUB     R7, R7, #$1
00007284: 1AFFFFFC  BNE     $727c
00007288: EB000000  BL      $7290
0000728C: E8BD81F0  LDMUW   [R13], { R4-R8, R15 }
00007290: E3070210  MRS     R0,CPSR
00007294: E3A01000  MOV     R1, #$0
00007298: E5801000  STR     R1, [R0]
0000729C: E5801004  STR     R1, [R0, #$4]
000072A0: E5801008  STR     R1, [R0, #$8]
000072A4: E580100C  STR     R1, [R0, #$c]
000072A8: E59F1004  LDR     R1, [R15, #$4] (72b4)
000072AC: E5801000  STR     R1, [R0]
000072B0: E12FFF1E  BX      R14
000072B4: 4D415244  STCMIL  p2, c5, [R1,-#$110]
000072B8: E92D4010  STMPW   [R13], { R4, R14 }
000072BC: E1A02000  MOV     R2, R0 
000072C0: E3A01000  MOV     R1, #$0
000072C4: E3A00000  MOV     R0, #$0
000072C8: E3A03000  MOV     R3, #$0
000072CC: E59F40D8  LDR     R4, [R15, #$d8] (73ac)
000072D0: E5940028  LDR     R0, [R4, #$28]
000072D4: E59F00D4  LDR     R0, [R15, #$d4] (73b0)
000072D8: E5840028  STR     R0, [R4, #$28]
000072DC: E3800102  ORR     R0, R0, #$80000000
000072E0: E5840028  STR     R0, [R4, #$28]
000072E4: E320F000  MSRF    CPSR,R15, #$0
000072E8: EA000000  B       $72f0
000072EC: E2811001  ADD     R1, R1, #$1
000072F0: E3510A01  CMPS    R1, #$1000
000072F4: 3AFFFFFC  BCC     $72ec
000072F8: E59F40AC  LDR     R4, [R15, #$ac] (73ac)
000072FC: E5940054  LDR     R0, [R4, #$54]
00007300: E3C00803  BIC     R0, R0, #$30000
00007304: E3800801  ORR     R0, R0, #$10000
00007308: E5840054  STR     R0, [R4, #$54]
0000730C: E3A01000  MOV     R1, #$0
00007310: EA000000  B       $7318
00007314: E2811001  ADD     R1, R1, #$1
00007318: E3510A01  CMPS    R1, #$1000
0000731C: 3AFFFFFC  BCC     $7314
00007320: E3A04030  MOV     R4, #$30
00007324: E733F412  LDR!    R15, [R3, R2 LSL R8]
00007328: E59F407C  LDR     R4, [R15, #$7c] (73ac)
0000732C: E5940000  LDR     R0, [R4]
00007330: E3800102  ORR     R0, R0, #$80000000
00007334: E3C00C1F  BIC     R0, R0, #$1f00
00007338: E1800403  ORR     R0, R0, R3 ,LSL #8
0000733C: E3C00030  BIC     R0, R0, #$30
00007340: E3800010  ORR     R0, R0, #$10
00007344: E3C00803  BIC     R0, R0, #$30000
00007348: E3C00003  BIC     R0, R0, #$3
0000734C: E5840000  STR     R0, [R4]
00007350: E5940054  LDR     R0, [R4, #$54]
00007354: E3C00003  BIC     R0, R0, #$3
00007358: E3800001  ORR     R0, R0, #$1
0000735C: E3C00030  BIC     R0, R0, #$30
00007360: E3800010  ORR     R0, R0, #$10
00007364: E3C00C03  BIC     R0, R0, #$300
00007368: E3800C01  ORR     R0, R0, #$100
0000736C: E5840054  STR     R0, [R4, #$54]
00007370: E5940054  LDR     R0, [R4, #$54]
00007374: E3C00803  BIC     R0, R0, #$30000
00007378: E3800802  ORR     R0, R0, #$20000
0000737C: E5840054  STR     R0, [R4, #$54]
00007380: E3A01000  MOV     R1, #$0
00007384: EA000000  B       $738c
00007388: E2811001  ADD     R1, R1, #$1
0000738C: E3510801  CMPS    R1, #$10000
00007390: 3AFFFFFC  BCC     $7388
00007394: E8BD8010  LDMUW   [R13], { R4, R15 }
00007398: E1A01000  MOV     R1, R0 
0000739C: E3A00000  MOV     R0, #$0
000073A0: E12FFF1E  BX      R14
000073A4: E12FFF1E  BX      R14
000073A8: E12FFF1E  BX      R14
000073AC: 01C20000  BICEQ   R0, R2, R0 
000073B0: 21009911  MRSCS   R9,CPSR
